; Function Attrs: nounwind uwtable
define internal i32 @vaapi_vc1_end_frame(ptr noundef %0) #0 {
  %2 = getelementptr inbounds nuw i8, ptr %0, i64 32
  %3 = load ptr, ptr %2, align 8, !tbaa !4
  %4 = getelementptr inbounds nuw i8, ptr %3, i64 1208
  %5 = load ptr, ptr %4, align 8, !tbaa !27
  %6 = getelementptr inbounds nuw i8, ptr %5, i64 96
  %7 = load ptr, ptr %6, align 8, !tbaa !50
  %8 = tail call i32 @ff_vaapi_decode_issue(ptr noundef %0, ptr noundef %7) #5
  ret i32 %8
}